; Function Attrs: nounwind uwtable
define noalias noundef ptr @Gia_ManCollectPoIds(ptr noundef readonly captures(none) %0) local_unnamed_addr #2 {
  %2 = getelementptr i8, ptr %0, i64 16
  %.val8 = load i32, ptr %2, align 8
  %3 = getelementptr i8, ptr %0, i64 72
  %.val9 = load ptr, ptr %3, align 8
  %4 = getelementptr i8, ptr %.val9, i64 4
  %.val9.val = load i32, ptr %4, align 4
  %5 = sub nsw i32 %.val9.val, %.val8
  %6 = tail call noalias dereferenceable_or_null(16) ptr @malloc(i64 noundef 16) #40
  %7 = add i32 %5, -1
  %or.cond.i = icmp ult i32 %7, 15
  %spec.store.select.i = select i1 %or.cond.i, i32 16, i32 %5
  %8 = getelementptr inbounds nuw i8, ptr %6, i64 4
  store i32 0, ptr %8, align 4
  store i32 %spec.store.select.i, ptr %6, align 8
  %.not.i = icmp eq i32 %spec.store.select.i, 0
  br i1 %.not.i, label %Vec_IntAlloc.exit, label %9

9:                                                ; preds = %1
  %10 = sext i32 %spec.store.select.i to i64
  %11 = shl nsw i64 %10, 2
  %12 = tail call noalias ptr @malloc(i64 noundef %11) #40
  br label %Vec_IntAlloc.exit

Vec_IntAlloc.exit:                                ; preds = %1, %9
  %13 = phi ptr [ %12, %9 ], [ null, %1 ]
  %14 = getelementptr inbounds nuw i8, ptr %6, i64 8
  store ptr %13, ptr %14, align 8
  %15 = icmp sgt i32 %.val9.val, %.val8
  br i1 %15, label %.lr.ph, label %.critedge

.lr.ph:                                           ; preds = %Vec_IntAlloc.exit, %Vec_IntPush.exit
  %indvars.iv = phi i64 [ %indvars.iv.next, %Vec_IntPush.exit ], [ 0, %Vec_IntAlloc.exit ]
  %.val1116 = phi ptr [ %.val11, %Vec_IntPush.exit ], [ %.val9, %Vec_IntAlloc.exit ]
  %16 = getelementptr i8, ptr %.val1116, i64 8
  %.val = load ptr, ptr %16, align 8
  %17 = getelementptr inbounds nuw i32, ptr %.val, i64 %indvars.iv
  %18 = load i32, ptr %17, align 4
  %19 = load i32, ptr %8, align 4
  %20 = load i32, ptr %6, align 8
  %21 = icmp eq i32 %19, %20
  br i1 %21, label %22, label %.Vec_IntGrow.exit10_crit_edge.i

.Vec_IntGrow.exit10_crit_edge.i:                  ; preds = %.lr.ph
  %.pre.i = load ptr, ptr %14, align 8
  br label %Vec_IntPush.exit

22:                                               ; preds = %.lr.ph
  %23 = icmp slt i32 %19, 16
  br i1 %23, label %24, label %31

24:                                               ; preds = %22
  %25 = load ptr, ptr %14, align 8
  %.not9.i.i = icmp eq ptr %25, null
  br i1 %.not9.i.i, label %28, label %26

26:                                               ; preds = %24
  %27 = tail call dereferenceable_or_null(64) ptr @realloc(ptr noundef nonnull %25, i64 noundef 64) #39
  br label %Vec_IntGrow.exit.i

28:                                               ; preds = %24
  %29 = tail call noalias dereferenceable_or_null(64) ptr @malloc(i64 noundef 64) #40
  br label %Vec_IntGrow.exit.i

Vec_IntGrow.exit.i:                               ; preds = %28, %26
  %30 = phi ptr [ %27, %26 ], [ %29, %28 ]
  store ptr %30, ptr %14, align 8
  store i32 16, ptr %6, align 8
  br label %Vec_IntPush.exit

31:                                               ; preds = %22
  %32 = shl nuw nsw i32 %19, 1
  %33 = load ptr, ptr %14, align 8
  %.not9.i9.i = icmp eq ptr %33, null
  %34 = zext nneg i32 %32 to i64
  %35 = shl nuw nsw i64 %34, 2
  br i1 %.not9.i9.i, label %38, label %36

36:                                               ; preds = %31
  %37 = tail call ptr @realloc(ptr noundef nonnull %33, i64 noundef %35) #39
  br label %40

38:                                               ; preds = %31
  %39 = tail call noalias ptr @malloc(i64 noundef %35) #40
  br label %40

40:                                               ; preds = %38, %36
  %41 = phi ptr [ %37, %36 ], [ %39, %38 ]
  store ptr %41, ptr %14, align 8
  store i32 %32, ptr %6, align 8
  br label %Vec_IntPush.exit

Vec_IntPush.exit:                                 ; preds = %.Vec_IntGrow.exit10_crit_edge.i, %Vec_IntGrow.exit.i, %40
  %42 = phi ptr [ %.pre.i, %.Vec_IntGrow.exit10_crit_edge.i ], [ %41, %40 ], [ %30, %Vec_IntGrow.exit.i ]
  %43 = add nsw i32 %19, 1
  store i32 %43, ptr %8, align 4
  %44 = sext i32 %19 to i64
  %45 = getelementptr inbounds i32, ptr %42, i64 %44
  store i32 %18, ptr %45, align 4
  %indvars.iv.next = add nuw nsw i64 %indvars.iv, 1
  %.val10 = load i32, ptr %2, align 8
  %.val11 = load ptr, ptr %3, align 8
  %46 = getelementptr i8, ptr %.val11, i64 4
  %.val11.val = load i32, ptr %46, align 4
  %47 = sub nsw i32 %.val11.val, %.val10
  %48 = sext i32 %47 to i64
  %49 = icmp slt i64 %indvars.iv.next, %48
  br i1 %49, label %.lr.ph, label %.critedge, !llvm.loop !41

.critedge:                                        ; preds = %Vec_IntPush.exit, %Vec_IntAlloc.exit
  ret ptr %6
}